Certificate:
    Data:
        Version: 3 (0x2)
        Serial Number: 974 (0x3ce)
    Signature Algorithm: sha256WithRSAEncryption
        Issuer: CN=Magyar Telekom Plc. IT EAI&APP Support, C=HU, L=Budapest, O=Magyar Telekom Plc., OU=IT Operation, OU=Integration and Application Technology Department, OU=AppIntTech/emailAddress=ITEAIESALKUZE_OUT@telekom.hu
        Validity
            Not Before: Jul 25 11:25:14 2016 GMT
            Not After : Mar 16 11:25:14 2041 GMT
        Subject: C=HU, L=Budapest, O=Magyar Telekom Plc., OU=IT Operation, OU=Application and Integration Department, OU=AppIntTech, CN=lwitester1/emailAddress=paroczi.zsolt@ext.telekom.hu
        Subject Public Key Info:
            Public Key Algorithm: rsaEncryption
                Public-Key: (2048 bit)
                Modulus:
                    00:d2:6f:4a:8d:9a:fc:14:66:59:d1:fd:78:3a:85:
                    83:30:62:89:42:d6:de:8c:f3:5f:82:4d:2a:6c:db:
                    ab:ad:07:f2:63:3e:f6:29:a7:54:ff:a4:24:be:b0:
                    06:2c:fe:28:83:9a:d4:01:29:7a:c7:96:5e:3f:d4:
                    10:88:a8:d3:3b:b1:06:18:a5:7d:0e:34:ae:f6:c7:
                    ba:7c:c4:12:be:b8:76:a8:74:0d:80:83:60:d1:db:
                    56:af:b1:7e:9b:b6:9d:d3:f6:99:51:db:01:34:f7:
                    91:af:19:9c:ab:25:e9:07:c9:4d:0e:cb:ca:e2:9f:
                    d1:c3:ca:ae:ab:03:b7:ce:f2:85:51:14:ef:da:4e:
                    55:4d:78:fd:ff:b8:ab:08:26:1f:63:26:e6:9a:b7:
                    3a:34:eb:9b:35:7e:7b:23:04:6a:18:93:5c:87:a4:
                    23:e6:92:0b:25:06:ce:c2:b8:2d:31:19:05:74:97:
                    12:ee:ae:1a:e3:17:35:7e:c5:5b:22:3d:ab:85:0e:
                    81:2c:aa:5c:cb:9e:81:39:91:b9:9b:5b:f5:91:8c:
                    d5:8d:da:c6:f1:f9:9b:53:95:81:7b:0e:19:6c:bf:
                    a3:f6:e3:85:4f:72:1f:80:ae:56:95:7e:d1:6c:bd:
                    19:9e:ad:03:76:ab:97:24:f7:e4:c6:b0:93:ec:41:
                    bc:b9
                Exponent: 65537 (0x10001)
        X509v3 extensions:
            X509v3 Basic Constraints: 
                CA:FALSE
            Netscape Comment: 
                OpenSSL Generated Certificate
            X509v3 Subject Key Identifier: 
                DA:36:A9:0B:22:EF:AE:9C:9B:8F:83:BF:03:C5:1B:E0:B3:86:89:3E
            X509v3 Authority Key Identifier: 
                keyid:0A:3A:47:23:0A:C4:E4:39:6D:AB:E0:53:36:3F:5C:14:EC:CA:79:C9
                DirName:/CN=Magyar Telekom Plc. IT EAI&APP Support/C=HU/L=Budapest/O=Magyar Telekom Plc./OU=IT Operation/OU=Integration and Application Technology Department/OU=AppIntTech/emailAddress=ITEAIESALKUZE_OUT@telekom.hu
                serial:D4:8E:66:CA:FB:B8:03:39

    Signature Algorithm: sha256WithRSAEncryption
         a6:51:8d:61:3b:46:30:e5:6a:7b:df:1b:3a:74:a7:3c:98:42:
         5d:b5:5f:41:4e:aa:2e:13:70:f6:b3:57:42:51:89:db:13:cd:
         22:e1:75:3f:c4:7a:bf:80:f0:3c:87:bd:70:9b:8e:08:e1:44:
         50:16:c5:1a:7e:33:79:81:f5:17:12:7d:41:e3:6f:bd:8a:26:
         72:44:77:f8:a3:2a:dd:7e:0b:f5:b3:d3:80:1d:3a:a5:34:ce:
         4c:35:a6:25:8b:9c:9b:9b:9a:8a:0c:77:19:b0:99:4a:c1:11:
         e8:c6:0f:2a:02:a5:9e:6f:b9:66:b0:53:2b:9f:d0:80:35:88:
         8c:42:13:cd:ed:25:d1:56:5c:8a:f6:eb:0a:85:6f:f3:3a:46:
         a7:31:6c:73:44:29:41:73:92:9f:d0:e4:8b:39:04:58:99:bf:
         ae:d0:6c:5e:ad:5d:90:70:a6:a7:d1:48:8d:8a:c2:b5:d2:c2:
         b8:d1:21:9c:da:b7:a8:cb:67:70:87:4c:67:68:31:9c:06:a4:
         cc:a7:30:2b:27:82:f1:b9:9a:d5:50:db:2c:0c:3f:d4:7c:c6:
         a6:0d:0f:da:b5:94:e3:8b:37:5a:f5:96:87:b9:af:91:6f:37:
         25:7b:a7:93:92:3f:5c:c4:02:5a:15:49:ae:a2:c2:6e:07:63:
         34:a7:42:1c
-----BEGIN CERTIFICATE-----
MIIGADCCBOigAwIBAgICA84wDQYJKoZIhvcNAQELBQAwggEEMS8wLQYDVQQDFCZN
YWd5YXIgVGVsZWtvbSBQbGMuIElUIEVBSSZBUFAgU3VwcG9ydDELMAkGA1UEBhMC
SFUxETAPBgNVBAcTCEJ1ZGFwZXN0MRwwGgYDVQQKExNNYWd5YXIgVGVsZWtvbSBQ
bGMuMRUwEwYDVQQLEwxJVCBPcGVyYXRpb24xOjA4BgNVBAsTMUludGVncmF0aW9u
IGFuZCBBcHBsaWNhdGlvbiBUZWNobm9sb2d5IERlcGFydG1lbnQxEzARBgNVBAsT
CkFwcEludFRlY2gxKzApBgkqhkiG9w0BCQEWHElURUFJRVNBTEtVWkVfT1VUQHRl
bGVrb20uaHUwHhcNMTYwNzI1MTEyNTE0WhcNNDEwMzE2MTEyNTE0WjCB3TELMAkG
A1UEBhMCSFUxETAPBgNVBAcTCEJ1ZGFwZXN0MRwwGgYDVQQKExNNYWd5YXIgVGVs
ZWtvbSBQbGMuMRUwEwYDVQQLEwxJVCBPcGVyYXRpb24xLzAtBgNVBAsTJkFwcGxp
Y2F0aW9uIGFuZCBJbnRlZ3JhdGlvbiBEZXBhcnRtZW50MRMwEQYDVQQLEwpBcHBJ
bnRUZWNoMRMwEQYDVQQDEwpsd2l0ZXN0ZXIxMSswKQYJKoZIhvcNAQkBFhxwYXJv
Y3ppLnpzb2x0QGV4dC50ZWxla29tLmh1MIIBIjANBgkqhkiG9w0BAQEFAAOCAQ8A
MIIBCgKCAQEA0m9KjZr8FGZZ0f14OoWDMGKJQtbejPNfgk0qbNurrQfyYz72KadU
/6QkvrAGLP4og5rUASl6x5ZeP9QQiKjTO7EGGKV9DjSu9se6fMQSvrh2qHQNgINg
0dtWr7F+m7ad0/aZUdsBNPeRrxmcqyXpB8lNDsvK4p/Rw8quqwO3zvKFURTv2k5V
TXj9/7irCCYfYybmmrc6NOubNX57IwRqGJNch6Qj5pILJQbOwrgtMRkFdJcS7q4a
4xc1fsVbIj2rhQ6BLKpcy56BOZG5m1v1kYzVjdrG8fmbU5WBew4ZbL+j9uOFT3If
gK5WlX7RbL0Znq0DdquXJPfkxrCT7EG8uQIDAQABo4IBnjCCAZowCQYDVR0TBAIw
ADAsBglghkgBhvhCAQ0EHxYdT3BlblNTTCBHZW5lcmF0ZWQgQ2VydGlmaWNhdGUw
HQYDVR0OBBYEFNo2qQsi766cm4+DvwPFG+Czhok+MIIBPgYDVR0jBIIBNTCCATGA
FAo6RyMKxOQ5bavgUzY/XBTsynnJoYIBDKSCAQgwggEEMS8wLQYDVQQDFCZNYWd5
YXIgVGVsZWtvbSBQbGMuIElUIEVBSSZBUFAgU3VwcG9ydDELMAkGA1UEBhMCSFUx
ETAPBgNVBAcTCEJ1ZGFwZXN0MRwwGgYDVQQKExNNYWd5YXIgVGVsZWtvbSBQbGMu
MRUwEwYDVQQLEwxJVCBPcGVyYXRpb24xOjA4BgNVBAsTMUludGVncmF0aW9uIGFu
ZCBBcHBsaWNhdGlvbiBUZWNobm9sb2d5IERlcGFydG1lbnQxEzARBgNVBAsTCkFw
cEludFRlY2gxKzApBgkqhkiG9w0BCQEWHElURUFJRVNBTEtVWkVfT1VUQHRlbGVr
b20uaHWCCQDUjmbK+7gDOTANBgkqhkiG9w0BAQsFAAOCAQEAplGNYTtGMOVqe98b
OnSnPJhCXbVfQU6qLhNw9rNXQlGJ2xPNIuF1P8R6v4DwPIe9cJuOCOFEUBbFGn4z
eYH1FxJ9QeNvvYomckR3+KMq3X4L9bPTgB06pTTOTDWmJYucm5uaigx3GbCZSsER
6MYPKgKlnm+5ZrBTK5/QgDWIjEITze0l0VZcivbrCoVv8zpGpzFsc0QpQXOSn9Dk
izkEWJm/rtBsXq1dkHCmp9FIjYrCtdLCuNEhnNq3qMtncIdMZ2gxnAakzKcwKyeC
8bma1VDbLAw/1HzGpg0P2rWU44s3WvWWh7mvkW83JXunk5I/XMQCWhVJrqLCbgdj
NKdCHA==
-----END CERTIFICATE-----
